; Function Attrs: inlinehint nofree nounwind memory(write, argmem: none, inaccessiblemem: readwrite) uwtable
define internal fastcc noalias noundef ptr @Hsh_VecManStart() unnamed_addr #7 {
  %1 = tail call noalias dereferenceable_or_null(72) ptr @calloc(i64 noundef 1, i64 noundef 72) #33
  br label %.loopexit.i

.loopexit.i:                                      ; preds = %.loopexit.i.backedge, %0
  %.012.i = phi i32 [ 999, %0 ], [ %2, %.loopexit.i.backedge ]
  %2 = add i32 %.012.i, 1
  %3 = and i32 %.012.i, 1
  %.not.not.i = icmp eq i32 %3, 0
  br i1 %.not.not.i, label %.preheader.i, label %.loopexit.i.backedge

.loopexit.i.backedge:                             ; preds = %.lr.ph.i, %.loopexit.i
  br label %.loopexit.i, !llvm.loop !45

.preheader.i:                                     ; preds = %.loopexit.i
  %.not15.i = icmp ult i32 %2, 9
  br i1 %.not15.i, label %Abc_PrimeCudd.exit, label %.lr.ph.i

4:                                                ; preds = %.lr.ph.i
  %5 = add nuw nsw i32 %.01116.i, 2
  %6 = mul nuw nsw i32 %5, %5
  %.not.i = icmp ugt i32 %6, %2
  br i1 %.not.i, label %Abc_PrimeCudd.exit, label %.lr.ph.i, !llvm.loop !46

.lr.ph.i:                                         ; preds = %.preheader.i, %4
  %.01116.i = phi i32 [ %5, %4 ], [ 3, %.preheader.i ]
  %7 = urem i32 %2, %.01116.i
  %8 = icmp eq i32 %7, 0
  br i1 %8, label %.loopexit.i.backedge, label %4, !llvm.loop !45

Abc_PrimeCudd.exit:                               ; preds = %.preheader.i, %4
  %9 = tail call noalias dereferenceable_or_null(16) ptr @malloc(i64 noundef 16) #31
  %or.cond.i.i = icmp ult i32 %.012.i, 15
  %spec.store.select.i.i = select i1 %or.cond.i.i, i32 16, i32 %2
  store i32 %spec.store.select.i.i, ptr %9, align 8, !tbaa !33
  %10 = getelementptr inbounds nuw i8, ptr %9, i64 4
  %11 = sext i32 %spec.store.select.i.i to i64
  %12 = shl nsw i64 %11, 2
  %13 = tail call noalias ptr @malloc(i64 noundef %12) #31
  %14 = getelementptr inbounds nuw i8, ptr %9, i64 8
  store ptr %13, ptr %14, align 8, !tbaa !34
  store i32 %2, ptr %10, align 4, !tbaa !30
  %.not.i6 = icmp eq ptr %13, null
  br i1 %.not.i6, label %Vec_IntStartFull.exit, label %15

15:                                               ; preds = %Abc_PrimeCudd.exit
  %16 = sext i32 %2 to i64
  %17 = shl nsw i64 %16, 2
  tail call void @llvm.memset.p0.i64(ptr nonnull align 4 %13, i8 -1, i64 %17, i1 false)
  br label %Vec_IntStartFull.exit

Vec_IntStartFull.exit:                            ; preds = %Abc_PrimeCudd.exit, %15
  store ptr %9, ptr %1, align 8, !tbaa !44
  %18 = tail call noalias dereferenceable_or_null(16) ptr @malloc(i64 noundef 16) #31
  %19 = getelementptr inbounds nuw i8, ptr %18, i64 4
  store i32 0, ptr %19, align 4, !tbaa !30
  store i32 4000, ptr %18, align 8, !tbaa !33
  %20 = tail call noalias dereferenceable_or_null(16000) ptr @malloc(i64 noundef 16000) #31
  %21 = getelementptr inbounds nuw i8, ptr %18, i64 8
  store ptr %20, ptr %21, align 8, !tbaa !34
  %22 = getelementptr inbounds nuw i8, ptr %1, i64 8
  store ptr %18, ptr %22, align 8, !tbaa !47
  %23 = tail call noalias dereferenceable_or_null(16) ptr @malloc(i64 noundef 16) #31
  %24 = getelementptr inbounds nuw i8, ptr %23, i64 4
  store i32 0, ptr %24, align 4, !tbaa !30
  store i32 1000, ptr %23, align 8, !tbaa !33
  %25 = tail call noalias dereferenceable_or_null(4000) ptr @malloc(i64 noundef 4000) #31
  %26 = getelementptr inbounds nuw i8, ptr %23, i64 8
  store ptr %25, ptr %26, align 8, !tbaa !34
  %27 = getelementptr inbounds nuw i8, ptr %1, i64 16
  store ptr %23, ptr %27, align 8, !tbaa !42
  ret ptr %1
}